; Function Attrs: mustprogress uwtable
define dso_local noundef ptr @_ZN8Function16get_one_functionERKSt6vectorIPS_SaIS1_EE(ptr noundef nonnull readonly align 8 captures(none) dereferenceable(24) %0) local_unnamed_addr #4 align 2 {
  %2 = getelementptr inbounds nuw i8, ptr %0, i64 8
  %3 = load ptr, ptr %2, align 8
  %4 = load ptr, ptr %0, align 8
  %5 = ptrtoint ptr %3 to i64
  %6 = ptrtoint ptr %4 to i64
  %7 = sub i64 %5, %6
  %8 = ashr exact i64 %7, 3
  switch i64 %8, label %11 [
    i64 0, label %18
    i64 1, label %9
  ]

9:                                                ; preds = %1
  %10 = load ptr, ptr %4, align 8
  br label %18

11:                                               ; preds = %1
  %12 = trunc i64 %8 to i32
  %13 = tail call noundef i32 @_Z8rnd_uptojPK6FilterPKNSt7__cxx1112basic_stringIcSt11char_traitsIcESaIcEEE(i32 noundef %12, ptr noundef null, ptr noundef null)
  %14 = sext i32 %13 to i64
  %15 = load ptr, ptr %0, align 8
  %16 = getelementptr inbounds ptr, ptr %15, i64 %14
  %17 = load ptr, ptr %16, align 8
  br label %18

18:                                               ; preds = %1, %11, %9
  %.0 = phi ptr [ %10, %9 ], [ %17, %11 ], [ null, %1 ]
  ret ptr %.0
}